
dojo_project.elf:     file format elf32-avr

Sections:
Idx Name          Size      VMA       LMA       File off  Algn
  0 .data         00000026  00800100  00000c18  00000cac  2**0
                  CONTENTS, ALLOC, LOAD, DATA
  1 .text         00000c18  00000000  00000000  00000094  2**1
                  CONTENTS, ALLOC, LOAD, READONLY, CODE
  2 .bss          00000128  00800126  00800126  00000cd2  2**0
                  ALLOC
  3 .comment      00000030  00000000  00000000  00000cd2  2**0
                  CONTENTS, READONLY
  4 .note.gnu.avr.deviceinfo 00000040  00000000  00000000  00000d04  2**2
                  CONTENTS, READONLY
  5 .debug_aranges 000003e8  00000000  00000000  00000d44  2**0
                  CONTENTS, READONLY, DEBUGGING
  6 .debug_info   0000ad95  00000000  00000000  0000112c  2**0
                  CONTENTS, READONLY, DEBUGGING
  7 .debug_abbrev 000020d4  00000000  00000000  0000bec1  2**0
                  CONTENTS, READONLY, DEBUGGING
  8 .debug_line   000023c8  00000000  00000000  0000df95  2**0
                  CONTENTS, READONLY, DEBUGGING
  9 .debug_frame  00000b3c  00000000  00000000  00010360  2**2
                  CONTENTS, READONLY, DEBUGGING
 10 .debug_str    000028f9  00000000  00000000  00010e9c  2**0
                  CONTENTS, READONLY, DEBUGGING
 11 .debug_loc    00003f99  00000000  00000000  00013795  2**0
                  CONTENTS, READONLY, DEBUGGING
 12 .debug_ranges 00000400  00000000  00000000  0001772e  2**0
                  CONTENTS, READONLY, DEBUGGING

Disassembly of section .text:

00000000 <__vectors>:
   0:	0c 94 64 00 	jmp	0xc8	; 0xc8 <__dtors_end>
   4:	0c 94 8c 00 	jmp	0x118	; 0x118 <__bad_interrupt>
   8:	0c 94 8c 00 	jmp	0x118	; 0x118 <__bad_interrupt>
   c:	0c 94 ba 01 	jmp	0x374	; 0x374 <__vector_3>
  10:	0c 94 ba 01 	jmp	0x374	; 0x374 <__vector_3>
  14:	0c 94 ba 01 	jmp	0x374	; 0x374 <__vector_3>
  18:	0c 94 8c 00 	jmp	0x118	; 0x118 <__bad_interrupt>
  1c:	0c 94 8c 00 	jmp	0x118	; 0x118 <__bad_interrupt>
  20:	0c 94 8c 00 	jmp	0x118	; 0x118 <__bad_interrupt>
  24:	0c 94 8c 00 	jmp	0x118	; 0x118 <__bad_interrupt>
  28:	0c 94 8c 00 	jmp	0x118	; 0x118 <__bad_interrupt>
  2c:	0c 94 8c 00 	jmp	0x118	; 0x118 <__bad_interrupt>
  30:	0c 94 8c 00 	jmp	0x118	; 0x118 <__bad_interrupt>
  34:	0c 94 8c 00 	jmp	0x118	; 0x118 <__bad_interrupt>
  38:	0c 94 8c 00 	jmp	0x118	; 0x118 <__bad_interrupt>
  3c:	0c 94 8c 00 	jmp	0x118	; 0x118 <__bad_interrupt>
  40:	0c 94 81 03 	jmp	0x702	; 0x702 <__vector_16>
  44:	0c 94 8c 00 	jmp	0x118	; 0x118 <__bad_interrupt>
  48:	0c 94 b8 02 	jmp	0x570	; 0x570 <__vector_18>
  4c:	0c 94 ea 02 	jmp	0x5d4	; 0x5d4 <__vector_19>
  50:	0c 94 8c 00 	jmp	0x118	; 0x118 <__bad_interrupt>
  54:	0c 94 8c 00 	jmp	0x118	; 0x118 <__bad_interrupt>
  58:	0c 94 8c 00 	jmp	0x118	; 0x118 <__bad_interrupt>
  5c:	0c 94 8c 00 	jmp	0x118	; 0x118 <__bad_interrupt>
  60:	0c 94 8c 00 	jmp	0x118	; 0x118 <__bad_interrupt>
  64:	0c 94 8c 00 	jmp	0x118	; 0x118 <__bad_interrupt>

00000068 <__trampolines_end>:
  68:	00 00       	nop
  6a:	00 08       	sbc	r0, r0
  6c:	00 02       	muls	r16, r16
  6e:	01 00       	.word	0x0001	; ????
  70:	00 03       	mulsu	r16, r16
  72:	04 07       	cpc	r16, r20
	...

0000007c <digital_pin_to_bit_mask_PGM>:
  7c:	01 02 04 08 10 20 40 80 01 02 04 08 10 20 01 02     ..... @...... ..
  8c:	04 08 10 20                                         ... 

00000090 <digital_pin_to_port_PGM>:
  90:	04 04 04 04 04 04 04 04 02 02 02 02 02 02 03 03     ................
  a0:	03 03 03 03                                         ....

000000a4 <port_to_input_PGM>:
  a4:	00 00 00 00 23 00 26 00 29 00                       ....#.&.).

000000ae <port_to_output_PGM>:
  ae:	00 00 00 00 25 00 28 00 2b 00                       ....%.(.+.

000000b8 <port_to_mode_PGM>:
  b8:	00 00 00 00 24 00 27 00 2a 00                       ....$.'.*.

000000c2 <__ctors_start>:
  c2:	b3 00       	.word	0x00b3	; ????
  c4:	1a 03       	fmul	r17, r18

000000c6 <__ctors_end>:
  c6:	c1 00       	.word	0x00c1	; ????

000000c8 <__dtors_end>:
  c8:	11 24       	eor	r1, r1
  ca:	1f be       	out	0x3f, r1	; 63
  cc:	cf ef       	ldi	r28, 0xFF	; 255
  ce:	d8 e0       	ldi	r29, 0x08	; 8
  d0:	de bf       	out	0x3e, r29	; 62
  d2:	cd bf       	out	0x3d, r28	; 61

000000d4 <__do_copy_data>:
  d4:	11 e0       	ldi	r17, 0x01	; 1
  d6:	a0 e0       	ldi	r26, 0x00	; 0
  d8:	b1 e0       	ldi	r27, 0x01	; 1
  da:	e8 e1       	ldi	r30, 0x18	; 24
  dc:	fc e0       	ldi	r31, 0x0C	; 12
  de:	02 c0       	rjmp	.+4      	; 0xe4 <__do_copy_data+0x10>
  e0:	05 90       	lpm	r0, Z+
  e2:	0d 92       	st	X+, r0
  e4:	a6 32       	cpi	r26, 0x26	; 38
  e6:	b1 07       	cpc	r27, r17
  e8:	d9 f7       	brne	.-10     	; 0xe0 <__do_copy_data+0xc>

000000ea <__do_clear_bss>:
  ea:	22 e0       	ldi	r18, 0x02	; 2
  ec:	a6 e2       	ldi	r26, 0x26	; 38
  ee:	b1 e0       	ldi	r27, 0x01	; 1
  f0:	01 c0       	rjmp	.+2      	; 0xf4 <.do_clear_bss_start>

000000f2 <.do_clear_bss_loop>:
  f2:	1d 92       	st	X+, r1

000000f4 <.do_clear_bss_start>:
  f4:	ae 34       	cpi	r26, 0x4E	; 78
  f6:	b2 07       	cpc	r27, r18
  f8:	e1 f7       	brne	.-8      	; 0xf2 <.do_clear_bss_loop>

000000fa <__do_global_ctors>:
  fa:	10 e0       	ldi	r17, 0x00	; 0
  fc:	c3 e6       	ldi	r28, 0x63	; 99
  fe:	d0 e0       	ldi	r29, 0x00	; 0
 100:	04 c0       	rjmp	.+8      	; 0x10a <__do_global_ctors+0x10>
 102:	21 97       	sbiw	r28, 0x01	; 1
 104:	fe 01       	movw	r30, r28
 106:	0e 94 f9 05 	call	0xbf2	; 0xbf2 <__tablejump2__>
 10a:	c1 36       	cpi	r28, 0x61	; 97
 10c:	d1 07       	cpc	r29, r17
 10e:	c9 f7       	brne	.-14     	; 0x102 <__do_global_ctors+0x8>
 110:	0e 94 48 03 	call	0x690	; 0x690 <main>
 114:	0c 94 ff 05 	jmp	0xbfe	; 0xbfe <__do_global_dtors>

00000118 <__bad_interrupt>:
 118:	0c 94 00 00 	jmp	0	; 0x0 <__vectors>

0000011c <_Z11pinSetupWTVv>:
	}
}

void scan()
{
	testComparing(scanClosestBeacon());
 11c:	61 e0       	ldi	r22, 0x01	; 1
 11e:	81 e0       	ldi	r24, 0x01	; 1
 120:	0e 94 90 04 	call	0x920	; 0x920 <pinMode>
 124:	60 e0       	ldi	r22, 0x00	; 0
 126:	81 e0       	ldi	r24, 0x01	; 1
 128:	0e 94 cc 04 	call	0x998	; 0x998 <digitalWrite>
 12c:	61 e0       	ldi	r22, 0x01	; 1
 12e:	84 e0       	ldi	r24, 0x04	; 4
 130:	0e 94 90 04 	call	0x920	; 0x920 <pinMode>
 134:	61 e0       	ldi	r22, 0x01	; 1
 136:	84 e0       	ldi	r24, 0x04	; 4
 138:	0e 94 cc 04 	call	0x998	; 0x998 <digitalWrite>
 13c:	61 e0       	ldi	r22, 0x01	; 1
 13e:	85 e0       	ldi	r24, 0x05	; 5
 140:	0e 94 90 04 	call	0x920	; 0x920 <pinMode>
 144:	61 e0       	ldi	r22, 0x01	; 1
 146:	85 e0       	ldi	r24, 0x05	; 5
 148:	0c 94 cc 04 	jmp	0x998	; 0x998 <digitalWrite>

0000014c <setup>:
 14c:	8f ef       	ldi	r24, 0xFF	; 255
 14e:	87 b9       	out	0x07, r24	; 7
 150:	8a b9       	out	0x0a, r24	; 10
 152:	84 b9       	out	0x04, r24	; 4
 154:	8a e1       	ldi	r24, 0x1A	; 26
 156:	88 b9       	out	0x08, r24	; 8
 158:	15 b8       	out	0x05, r1	; 5
 15a:	0e 94 8e 00 	call	0x11c	; 0x11c <_Z11pinSetupWTVv>
 15e:	61 e0       	ldi	r22, 0x01	; 1
 160:	84 e0       	ldi	r24, 0x04	; 4
 162:	0c 94 90 04 	jmp	0x920	; 0x920 <pinMode>

00000166 <_GLOBAL__sub_I_mySerial>:
 166:	20 e0       	ldi	r18, 0x00	; 0
 168:	41 e0       	ldi	r20, 0x01	; 1
 16a:	60 e0       	ldi	r22, 0x00	; 0
 16c:	85 e4       	ldi	r24, 0x45	; 69
 16e:	91 e0       	ldi	r25, 0x01	; 1
 170:	0e 94 8d 02 	call	0x51a	; 0x51a <_ZN14SoftwareSerialC1Ehhb>
 174:	20 e0       	ldi	r18, 0x00	; 0
 176:	43 e0       	ldi	r20, 0x03	; 3
 178:	62 e0       	ldi	r22, 0x02	; 2
 17a:	86 e2       	ldi	r24, 0x26	; 38
 17c:	91 e0       	ldi	r25, 0x01	; 1
 17e:	0c 94 8d 02 	jmp	0x51a	; 0x51a <_ZN14SoftwareSerialC1Ehhb>

00000182 <_GLOBAL__sub_D_mySerial>:
 182:	86 e2       	ldi	r24, 0x26	; 38
 184:	91 e0       	ldi	r25, 0x01	; 1
 186:	0e 94 34 02 	call	0x468	; 0x468 <_ZN14SoftwareSerialD1Ev>
 18a:	85 e4       	ldi	r24, 0x45	; 69
 18c:	91 e0       	ldi	r25, 0x01	; 1
 18e:	0c 94 34 02 	jmp	0x468	; 0x468 <_ZN14SoftwareSerialD1Ev>

00000192 <_Z11sendCommandi.part.3>:
 192:	cf 93       	push	r28
 194:	df 93       	push	r29
 196:	c0 e0       	ldi	r28, 0x00	; 0
 198:	d1 e0       	ldi	r29, 0x01	; 1
 19a:	68 81       	ld	r22, Y
 19c:	86 e2       	ldi	r24, 0x26	; 38
 19e:	91 e0       	ldi	r25, 0x01	; 1
 1a0:	0e 94 23 01 	call	0x246	; 0x246 <_ZN14SoftwareSerial5writeEh>
 1a4:	69 81       	ldd	r22, Y+1	; 0x01
 1a6:	86 e2       	ldi	r24, 0x26	; 38
 1a8:	91 e0       	ldi	r25, 0x01	; 1
 1aa:	df 91       	pop	r29
 1ac:	cf 91       	pop	r28
 1ae:	0c 94 23 01 	jmp	0x246	; 0x246 <_ZN14SoftwareSerial5writeEh>

000001b2 <_Z10readAnswerv>:
 1b2:	86 e2       	ldi	r24, 0x26	; 38
 1b4:	91 e0       	ldi	r25, 0x01	; 1
 1b6:	0e 94 8c 01 	call	0x318	; 0x318 <_ZN14SoftwareSerial9availableEv>
 1ba:	89 2b       	or	r24, r25
 1bc:	d1 f3       	breq	.-12     	; 0x1b2 <_Z10readAnswerv>
 1be:	86 e2       	ldi	r24, 0x26	; 38
 1c0:	91 e0       	ldi	r25, 0x01	; 1
 1c2:	0c 94 02 01 	jmp	0x204	; 0x204 <_ZN14SoftwareSerial4readEv>

000001c6 <loop>:
	pinMode(WTV_CLK, OUTPUT);
	digitalWrite(WTV_CLK, HIGH);
}

void loop()
{
 1c6:	0e 94 c9 00 	call	0x192	; 0x192 <_Z11sendCommandi.part.3>
	sendCommand(1);
	
	
	
	if (BTSerial.available())
 1ca:	86 e2       	ldi	r24, 0x26	; 38
 1cc:	91 e0       	ldi	r25, 0x01	; 1
 1ce:	0e 94 8c 01 	call	0x318	; 0x318 <_ZN14SoftwareSerial9availableEv>
 1d2:	89 2b       	or	r24, r25
 1d4:	71 f0       	breq	.+28     	; 0x1f2 <loop+0x2c>
	{
		mySerial.write(readAnswer());
 1d6:	0e 94 d9 00 	call	0x1b2	; 0x1b2 <_Z10readAnswerv>
 1da:	68 2f       	mov	r22, r24
 1dc:	85 e4       	ldi	r24, 0x45	; 69
 1de:	91 e0       	ldi	r25, 0x01	; 1
 1e0:	0e 94 23 01 	call	0x246	; 0x246 <_ZN14SoftwareSerial5writeEh>
		mySerial.write(readAnswer());
 1e4:	0e 94 d9 00 	call	0x1b2	; 0x1b2 <_Z10readAnswerv>
 1e8:	68 2f       	mov	r22, r24
 1ea:	85 e4       	ldi	r24, 0x45	; 69
 1ec:	91 e0       	ldi	r25, 0x01	; 1
 1ee:	0e 94 23 01 	call	0x246	; 0x246 <_ZN14SoftwareSerial5writeEh>
	}
	delay(500);
 1f2:	64 ef       	ldi	r22, 0xF4	; 244
 1f4:	71 e0       	ldi	r23, 0x01	; 1
 1f6:	80 e0       	ldi	r24, 0x00	; 0
 1f8:	90 e0       	ldi	r25, 0x00	; 0
 1fa:	0c 94 f0 03 	jmp	0x7e0	; 0x7e0 <delay>

000001fe <_ZN5Print17availableForWriteEv>:
 1fe:	80 e0       	ldi	r24, 0x00	; 0
 200:	90 e0       	ldi	r25, 0x00	; 0
 202:	08 95       	ret

00000204 <_ZN14SoftwareSerial4readEv>:
 204:	20 91 a6 01 	lds	r18, 0x01A6	; 0x8001a6 <_ZN14SoftwareSerial13active_objectE>
 208:	30 91 a7 01 	lds	r19, 0x01A7	; 0x8001a7 <_ZN14SoftwareSerial13active_objectE+0x1>
 20c:	28 17       	cp	r18, r24
 20e:	39 07       	cpc	r19, r25
 210:	b9 f4       	brne	.+46     	; 0x240 <_ZN14SoftwareSerial4readEv+0x3c>
 212:	90 91 64 01 	lds	r25, 0x0164	; 0x800164 <_ZN14SoftwareSerial20_receive_buffer_headE>
 216:	80 91 65 01 	lds	r24, 0x0165	; 0x800165 <_ZN14SoftwareSerial20_receive_buffer_tailE>
 21a:	98 17       	cp	r25, r24
 21c:	89 f0       	breq	.+34     	; 0x240 <_ZN14SoftwareSerial4readEv+0x3c>
 21e:	e0 91 64 01 	lds	r30, 0x0164	; 0x800164 <_ZN14SoftwareSerial20_receive_buffer_headE>
 222:	f0 e0       	ldi	r31, 0x00	; 0
 224:	ea 59       	subi	r30, 0x9A	; 154
 226:	fe 4f       	sbci	r31, 0xFE	; 254
 228:	80 81       	ld	r24, Z
 22a:	20 91 64 01 	lds	r18, 0x0164	; 0x800164 <_ZN14SoftwareSerial20_receive_buffer_headE>
 22e:	30 e0       	ldi	r19, 0x00	; 0
 230:	2f 5f       	subi	r18, 0xFF	; 255
 232:	3f 4f       	sbci	r19, 0xFF	; 255
 234:	2f 73       	andi	r18, 0x3F	; 63
 236:	33 27       	eor	r19, r19
 238:	20 93 64 01 	sts	0x0164, r18	; 0x800164 <_ZN14SoftwareSerial20_receive_buffer_headE>
 23c:	90 e0       	ldi	r25, 0x00	; 0
 23e:	08 95       	ret
 240:	8f ef       	ldi	r24, 0xFF	; 255
 242:	9f ef       	ldi	r25, 0xFF	; 255
 244:	08 95       	ret

00000246 <_ZN14SoftwareSerial5writeEh>:
 246:	1f 93       	push	r17
 248:	cf 93       	push	r28
 24a:	df 93       	push	r29
 24c:	dc 01       	movw	r26, r24
 24e:	5c 96       	adiw	r26, 0x1c	; 28
 250:	8d 91       	ld	r24, X+
 252:	9c 91       	ld	r25, X
 254:	5d 97       	sbiw	r26, 0x1d	; 29
 256:	00 97       	sbiw	r24, 0x00	; 0
 258:	39 f4       	brne	.+14     	; 0x268 <_ZN14SoftwareSerial5writeEh+0x22>
 25a:	21 e0       	ldi	r18, 0x01	; 1
 25c:	30 e0       	ldi	r19, 0x00	; 0
 25e:	13 96       	adiw	r26, 0x03	; 3
 260:	3c 93       	st	X, r19
 262:	2e 93       	st	-X, r18
 264:	12 97       	sbiw	r26, 0x02	; 2
 266:	3b c0       	rjmp	.+118    	; 0x2de <_ZN14SoftwareSerial5writeEh+0x98>
 268:	51 96       	adiw	r26, 0x11	; 17
 26a:	ed 91       	ld	r30, X+
 26c:	fc 91       	ld	r31, X
 26e:	52 97       	sbiw	r26, 0x12	; 18
 270:	50 96       	adiw	r26, 0x10	; 16
 272:	2c 91       	ld	r18, X
 274:	50 97       	sbiw	r26, 0x10	; 16
 276:	32 2f       	mov	r19, r18
 278:	30 95       	com	r19
 27a:	1f b7       	in	r17, 0x3f	; 63
 27c:	5e 96       	adiw	r26, 0x1e	; 30
 27e:	4c 91       	ld	r20, X
 280:	5e 97       	sbiw	r26, 0x1e	; 30
 282:	74 2f       	mov	r23, r20
 284:	72 70       	andi	r23, 0x02	; 2
 286:	41 fd       	sbrc	r20, 1
 288:	60 95       	com	r22
 28a:	f8 94       	cli
 28c:	40 81       	ld	r20, Z
 28e:	77 23       	and	r23, r23
 290:	11 f0       	breq	.+4      	; 0x296 <_ZN14SoftwareSerial5writeEh+0x50>
 292:	42 2b       	or	r20, r18
 294:	01 c0       	rjmp	.+2      	; 0x298 <_ZN14SoftwareSerial5writeEh+0x52>
 296:	43 23       	and	r20, r19
 298:	40 83       	st	Z, r20
 29a:	ec 01       	movw	r28, r24
 29c:	21 97       	sbiw	r28, 0x01	; 1
 29e:	f1 f7       	brne	.-4      	; 0x29c <_ZN14SoftwareSerial5writeEh+0x56>
 2a0:	48 e0       	ldi	r20, 0x08	; 8
 2a2:	50 81       	ld	r21, Z
 2a4:	60 ff       	sbrs	r22, 0
 2a6:	02 c0       	rjmp	.+4      	; 0x2ac <_ZN14SoftwareSerial5writeEh+0x66>
 2a8:	52 2b       	or	r21, r18
 2aa:	01 c0       	rjmp	.+2      	; 0x2ae <_ZN14SoftwareSerial5writeEh+0x68>
 2ac:	53 23       	and	r21, r19
 2ae:	50 83       	st	Z, r21
 2b0:	ec 01       	movw	r28, r24
 2b2:	21 97       	sbiw	r28, 0x01	; 1
 2b4:	f1 f7       	brne	.-4      	; 0x2b2 <_ZN14SoftwareSerial5writeEh+0x6c>
 2b6:	66 95       	lsr	r22
 2b8:	41 50       	subi	r20, 0x01	; 1
 2ba:	99 f7       	brne	.-26     	; 0x2a2 <_ZN14SoftwareSerial5writeEh+0x5c>
 2bc:	80 81       	ld	r24, Z
 2be:	77 23       	and	r23, r23
 2c0:	19 f0       	breq	.+6      	; 0x2c8 <_ZN14SoftwareSerial5writeEh+0x82>
 2c2:	83 23       	and	r24, r19
 2c4:	80 83       	st	Z, r24
 2c6:	02 c0       	rjmp	.+4      	; 0x2cc <_ZN14SoftwareSerial5writeEh+0x86>
 2c8:	28 2b       	or	r18, r24
 2ca:	20 83       	st	Z, r18
 2cc:	1f bf       	out	0x3f, r17	; 63
 2ce:	5c 96       	adiw	r26, 0x1c	; 28
 2d0:	8d 91       	ld	r24, X+
 2d2:	9c 91       	ld	r25, X
 2d4:	5d 97       	sbiw	r26, 0x1d	; 29
 2d6:	01 97       	sbiw	r24, 0x01	; 1
 2d8:	f1 f7       	brne	.-4      	; 0x2d6 <_ZN14SoftwareSerial5writeEh+0x90>
 2da:	81 e0       	ldi	r24, 0x01	; 1
 2dc:	90 e0       	ldi	r25, 0x00	; 0
 2de:	df 91       	pop	r29
 2e0:	cf 91       	pop	r28
 2e2:	1f 91       	pop	r17
 2e4:	08 95       	ret

000002e6 <_ZN14SoftwareSerial5flushEv>:
 2e6:	08 95       	ret

000002e8 <_ZN14SoftwareSerial4peekEv>:
 2e8:	20 91 a6 01 	lds	r18, 0x01A6	; 0x8001a6 <_ZN14SoftwareSerial13active_objectE>
 2ec:	30 91 a7 01 	lds	r19, 0x01A7	; 0x8001a7 <_ZN14SoftwareSerial13active_objectE+0x1>
 2f0:	28 17       	cp	r18, r24
 2f2:	39 07       	cpc	r19, r25
 2f4:	71 f4       	brne	.+28     	; 0x312 <_ZN14SoftwareSerial4peekEv+0x2a>
 2f6:	90 91 64 01 	lds	r25, 0x0164	; 0x800164 <_ZN14SoftwareSerial20_receive_buffer_headE>
 2fa:	80 91 65 01 	lds	r24, 0x0165	; 0x800165 <_ZN14SoftwareSerial20_receive_buffer_tailE>
 2fe:	98 17       	cp	r25, r24
 300:	41 f0       	breq	.+16     	; 0x312 <_ZN14SoftwareSerial4peekEv+0x2a>
 302:	e0 91 64 01 	lds	r30, 0x0164	; 0x800164 <_ZN14SoftwareSerial20_receive_buffer_headE>
 306:	f0 e0       	ldi	r31, 0x00	; 0
 308:	ea 59       	subi	r30, 0x9A	; 154
 30a:	fe 4f       	sbci	r31, 0xFE	; 254
 30c:	80 81       	ld	r24, Z
 30e:	90 e0       	ldi	r25, 0x00	; 0
 310:	08 95       	ret
 312:	8f ef       	ldi	r24, 0xFF	; 255
 314:	9f ef       	ldi	r25, 0xFF	; 255
 316:	08 95       	ret

00000318 <_ZN14SoftwareSerial9availableEv>:
 318:	20 91 a6 01 	lds	r18, 0x01A6	; 0x8001a6 <_ZN14SoftwareSerial13active_objectE>
 31c:	30 91 a7 01 	lds	r19, 0x01A7	; 0x8001a7 <_ZN14SoftwareSerial13active_objectE+0x1>
 320:	28 17       	cp	r18, r24
 322:	39 07       	cpc	r19, r25
 324:	71 f4       	brne	.+28     	; 0x342 <_ZN14SoftwareSerial9availableEv+0x2a>
 326:	80 91 65 01 	lds	r24, 0x0165	; 0x800165 <_ZN14SoftwareSerial20_receive_buffer_tailE>
 32a:	20 91 64 01 	lds	r18, 0x0164	; 0x800164 <_ZN14SoftwareSerial20_receive_buffer_headE>
 32e:	90 e0       	ldi	r25, 0x00	; 0
 330:	80 5c       	subi	r24, 0xC0	; 192
 332:	9f 4f       	sbci	r25, 0xFF	; 255
 334:	82 1b       	sub	r24, r18
 336:	91 09       	sbc	r25, r1
 338:	60 e4       	ldi	r22, 0x40	; 64
 33a:	70 e0       	ldi	r23, 0x00	; 0
 33c:	0e 94 d1 05 	call	0xba2	; 0xba2 <__divmodhi4>
 340:	08 95       	ret
 342:	80 e0       	ldi	r24, 0x00	; 0
 344:	90 e0       	ldi	r25, 0x00	; 0
 346:	08 95       	ret

00000348 <_ZN14SoftwareSerial13stopListeningEv>:
 348:	e0 91 a6 01 	lds	r30, 0x01A6	; 0x8001a6 <_ZN14SoftwareSerial13active_objectE>
 34c:	f0 91 a7 01 	lds	r31, 0x01A7	; 0x8001a7 <_ZN14SoftwareSerial13active_objectE+0x1>
 350:	e8 17       	cp	r30, r24
 352:	f9 07       	cpc	r31, r25
 354:	69 f4       	brne	.+26     	; 0x370 <_ZN14SoftwareSerial13stopListeningEv+0x28>
 356:	a3 89       	ldd	r26, Z+19	; 0x13
 358:	b4 89       	ldd	r27, Z+20	; 0x14
 35a:	9c 91       	ld	r25, X
 35c:	85 89       	ldd	r24, Z+21	; 0x15
 35e:	80 95       	com	r24
 360:	89 23       	and	r24, r25
 362:	8c 93       	st	X, r24
 364:	10 92 a7 01 	sts	0x01A7, r1	; 0x8001a7 <_ZN14SoftwareSerial13active_objectE+0x1>
 368:	10 92 a6 01 	sts	0x01A6, r1	; 0x8001a6 <_ZN14SoftwareSerial13active_objectE>
 36c:	81 e0       	ldi	r24, 0x01	; 1
 36e:	08 95       	ret
 370:	80 e0       	ldi	r24, 0x00	; 0
 372:	08 95       	ret

00000374 <__vector_3>:
 374:	1f 92       	push	r1
 376:	0f 92       	push	r0
 378:	0f b6       	in	r0, 0x3f	; 63
 37a:	0f 92       	push	r0
 37c:	11 24       	eor	r1, r1
 37e:	2f 93       	push	r18
 380:	3f 93       	push	r19
 382:	4f 93       	push	r20
 384:	5f 93       	push	r21
 386:	6f 93       	push	r22
 388:	7f 93       	push	r23
 38a:	8f 93       	push	r24
 38c:	9f 93       	push	r25
 38e:	af 93       	push	r26
 390:	bf 93       	push	r27
 392:	ef 93       	push	r30
 394:	ff 93       	push	r31
 396:	e0 91 a6 01 	lds	r30, 0x01A6	; 0x8001a6 <_ZN14SoftwareSerial13active_objectE>
 39a:	f0 91 a7 01 	lds	r31, 0x01A7	; 0x8001a7 <_ZN14SoftwareSerial13active_objectE+0x1>
 39e:	30 97       	sbiw	r30, 0x00	; 0
 3a0:	09 f4       	brne	.+2      	; 0x3a4 <__vector_3+0x30>
 3a2:	51 c0       	rjmp	.+162    	; 0x446 <__LOCK_REGION_LENGTH__+0x46>
 3a4:	96 8d       	ldd	r25, Z+30	; 0x1e
 3a6:	a6 85       	ldd	r26, Z+14	; 0x0e
 3a8:	b7 85       	ldd	r27, Z+15	; 0x0f
 3aa:	85 85       	ldd	r24, Z+13	; 0x0d
 3ac:	91 ff       	sbrs	r25, 1
 3ae:	04 c0       	rjmp	.+8      	; 0x3b8 <__vector_3+0x44>
 3b0:	9c 91       	ld	r25, X
 3b2:	89 23       	and	r24, r25
 3b4:	29 f4       	brne	.+10     	; 0x3c0 <__vector_3+0x4c>
 3b6:	47 c0       	rjmp	.+142    	; 0x446 <__LOCK_REGION_LENGTH__+0x46>
 3b8:	9c 91       	ld	r25, X
 3ba:	89 23       	and	r24, r25
 3bc:	09 f0       	breq	.+2      	; 0x3c0 <__vector_3+0x4c>
 3be:	43 c0       	rjmp	.+134    	; 0x446 <__LOCK_REGION_LENGTH__+0x46>
 3c0:	a3 89       	ldd	r26, Z+19	; 0x13
 3c2:	b4 89       	ldd	r27, Z+20	; 0x14
 3c4:	9c 91       	ld	r25, X
 3c6:	85 89       	ldd	r24, Z+21	; 0x15
 3c8:	80 95       	com	r24
 3ca:	89 23       	and	r24, r25
 3cc:	8c 93       	st	X, r24
	__asm__ volatile (
		"1: sbiw %0,1" "\n\t"
		"brne 1b"
		: "=w" (__count)
		: "0" (__count)
	);
 3ce:	86 89       	ldd	r24, Z+22	; 0x16
 3d0:	97 89       	ldd	r25, Z+23	; 0x17
 3d2:	01 97       	sbiw	r24, 0x01	; 1
 3d4:	f1 f7       	brne	.-4      	; 0x3d2 <__vector_3+0x5e>
 3d6:	60 8d       	ldd	r22, Z+24	; 0x18
 3d8:	71 8d       	ldd	r23, Z+25	; 0x19
 3da:	a6 85       	ldd	r26, Z+14	; 0x0e
 3dc:	b7 85       	ldd	r27, Z+15	; 0x0f
 3de:	55 85       	ldd	r21, Z+13	; 0x0d
 3e0:	38 e0       	ldi	r19, 0x08	; 8
 3e2:	20 e0       	ldi	r18, 0x00	; 0
 3e4:	cb 01       	movw	r24, r22
 3e6:	01 97       	sbiw	r24, 0x01	; 1
 3e8:	f1 f7       	brne	.-4      	; 0x3e6 <__vector_3+0x72>
 3ea:	82 2f       	mov	r24, r18
 3ec:	90 e0       	ldi	r25, 0x00	; 0
 3ee:	95 95       	asr	r25
 3f0:	87 95       	ror	r24
 3f2:	28 2f       	mov	r18, r24
 3f4:	4c 91       	ld	r20, X
 3f6:	45 23       	and	r20, r21
 3f8:	09 f0       	breq	.+2      	; 0x3fc <__vector_3+0x88>
 3fa:	20 68       	ori	r18, 0x80	; 128
 3fc:	31 50       	subi	r19, 0x01	; 1
 3fe:	91 f7       	brne	.-28     	; 0x3e4 <__vector_3+0x70>
 400:	86 8d       	ldd	r24, Z+30	; 0x1e
 402:	81 fd       	sbrc	r24, 1
 404:	20 95       	com	r18
 406:	80 91 65 01 	lds	r24, 0x0165	; 0x800165 <_ZN14SoftwareSerial20_receive_buffer_tailE>
 40a:	90 e0       	ldi	r25, 0x00	; 0
 40c:	01 96       	adiw	r24, 0x01	; 1
 40e:	8f 73       	andi	r24, 0x3F	; 63
 410:	99 27       	eor	r25, r25
 412:	30 91 64 01 	lds	r19, 0x0164	; 0x800164 <_ZN14SoftwareSerial20_receive_buffer_headE>
 416:	38 17       	cp	r19, r24
 418:	49 f0       	breq	.+18     	; 0x42c <__LOCK_REGION_LENGTH__+0x2c>
 41a:	a0 91 65 01 	lds	r26, 0x0165	; 0x800165 <_ZN14SoftwareSerial20_receive_buffer_tailE>
 41e:	b0 e0       	ldi	r27, 0x00	; 0
 420:	aa 59       	subi	r26, 0x9A	; 154
 422:	be 4f       	sbci	r27, 0xFE	; 254
 424:	2c 93       	st	X, r18
 426:	80 93 65 01 	sts	0x0165, r24	; 0x800165 <_ZN14SoftwareSerial20_receive_buffer_tailE>
 42a:	03 c0       	rjmp	.+6      	; 0x432 <__LOCK_REGION_LENGTH__+0x32>
 42c:	86 8d       	ldd	r24, Z+30	; 0x1e
 42e:	81 60       	ori	r24, 0x01	; 1
 430:	86 8f       	std	Z+30, r24	; 0x1e
 432:	82 8d       	ldd	r24, Z+26	; 0x1a
 434:	93 8d       	ldd	r25, Z+27	; 0x1b
 436:	01 97       	sbiw	r24, 0x01	; 1
 438:	f1 f7       	brne	.-4      	; 0x436 <__LOCK_REGION_LENGTH__+0x36>
 43a:	a3 89       	ldd	r26, Z+19	; 0x13
 43c:	b4 89       	ldd	r27, Z+20	; 0x14
 43e:	9c 91       	ld	r25, X
 440:	85 89       	ldd	r24, Z+21	; 0x15
 442:	89 2b       	or	r24, r25
 444:	8c 93       	st	X, r24
 446:	ff 91       	pop	r31
 448:	ef 91       	pop	r30
 44a:	bf 91       	pop	r27
 44c:	af 91       	pop	r26
 44e:	9f 91       	pop	r25
 450:	8f 91       	pop	r24
 452:	7f 91       	pop	r23
 454:	6f 91       	pop	r22
 456:	5f 91       	pop	r21
 458:	4f 91       	pop	r20
 45a:	3f 91       	pop	r19
 45c:	2f 91       	pop	r18
 45e:	0f 90       	pop	r0
 460:	0f be       	out	0x3f, r0	; 63
 462:	0f 90       	pop	r0
 464:	1f 90       	pop	r1
 466:	18 95       	reti

00000468 <_ZN14SoftwareSerialD1Ev>:
 468:	26 e0       	ldi	r18, 0x06	; 6
 46a:	31 e0       	ldi	r19, 0x01	; 1
 46c:	fc 01       	movw	r30, r24
 46e:	31 83       	std	Z+1, r19	; 0x01
 470:	20 83       	st	Z, r18
 472:	0c 94 a4 01 	jmp	0x348	; 0x348 <_ZN14SoftwareSerial13stopListeningEv>

00000476 <_ZN14SoftwareSerial5setTXEh>:
 476:	1f 93       	push	r17
 478:	cf 93       	push	r28
 47a:	df 93       	push	r29
 47c:	ec 01       	movw	r28, r24
 47e:	16 2f       	mov	r17, r22
 480:	6e 8d       	ldd	r22, Y+30	; 0x1e
 482:	66 95       	lsr	r22
 484:	61 70       	andi	r22, 0x01	; 1
 486:	81 e0       	ldi	r24, 0x01	; 1
 488:	68 27       	eor	r22, r24
 48a:	81 2f       	mov	r24, r17
 48c:	0e 94 cc 04 	call	0x998	; 0x998 <digitalWrite>
 490:	61 e0       	ldi	r22, 0x01	; 1
 492:	81 2f       	mov	r24, r17
 494:	0e 94 90 04 	call	0x920	; 0x920 <pinMode>
 498:	81 2f       	mov	r24, r17
 49a:	90 e0       	ldi	r25, 0x00	; 0
 49c:	fc 01       	movw	r30, r24
 49e:	e4 58       	subi	r30, 0x84	; 132
 4a0:	ff 4f       	sbci	r31, 0xFF	; 255
 4a2:	e4 91       	lpm	r30, Z
 4a4:	e8 8b       	std	Y+16, r30	; 0x10
 4a6:	fc 01       	movw	r30, r24
 4a8:	e0 57       	subi	r30, 0x70	; 112
 4aa:	ff 4f       	sbci	r31, 0xFF	; 255
 4ac:	e4 91       	lpm	r30, Z
 4ae:	f0 e0       	ldi	r31, 0x00	; 0
 4b0:	ee 0f       	add	r30, r30
 4b2:	ff 1f       	adc	r31, r31
 4b4:	e2 55       	subi	r30, 0x52	; 82
 4b6:	ff 4f       	sbci	r31, 0xFF	; 255
 4b8:	85 91       	lpm	r24, Z+
 4ba:	94 91       	lpm	r25, Z
 4bc:	9a 8b       	std	Y+18, r25	; 0x12
 4be:	89 8b       	std	Y+17, r24	; 0x11
 4c0:	df 91       	pop	r29
 4c2:	cf 91       	pop	r28
 4c4:	1f 91       	pop	r17
 4c6:	08 95       	ret

000004c8 <_ZN14SoftwareSerial5setRXEh>:
 4c8:	1f 93       	push	r17
 4ca:	cf 93       	push	r28
 4cc:	df 93       	push	r29
 4ce:	ec 01       	movw	r28, r24
 4d0:	16 2f       	mov	r17, r22
 4d2:	60 e0       	ldi	r22, 0x00	; 0
 4d4:	81 2f       	mov	r24, r17
 4d6:	0e 94 90 04 	call	0x920	; 0x920 <pinMode>
 4da:	8e 8d       	ldd	r24, Y+30	; 0x1e
 4dc:	81 fd       	sbrc	r24, 1
 4de:	04 c0       	rjmp	.+8      	; 0x4e8 <_ZN14SoftwareSerial5setRXEh+0x20>
 4e0:	61 e0       	ldi	r22, 0x01	; 1
 4e2:	81 2f       	mov	r24, r17
 4e4:	0e 94 cc 04 	call	0x998	; 0x998 <digitalWrite>
 4e8:	1c 87       	std	Y+12, r17	; 0x0c
 4ea:	81 2f       	mov	r24, r17
 4ec:	90 e0       	ldi	r25, 0x00	; 0
 4ee:	fc 01       	movw	r30, r24
 4f0:	e4 58       	subi	r30, 0x84	; 132
 4f2:	ff 4f       	sbci	r31, 0xFF	; 255
 4f4:	e4 91       	lpm	r30, Z
 4f6:	ed 87       	std	Y+13, r30	; 0x0d
 4f8:	fc 01       	movw	r30, r24
 4fa:	e0 57       	subi	r30, 0x70	; 112
 4fc:	ff 4f       	sbci	r31, 0xFF	; 255
 4fe:	e4 91       	lpm	r30, Z
 500:	f0 e0       	ldi	r31, 0x00	; 0
 502:	ee 0f       	add	r30, r30
 504:	ff 1f       	adc	r31, r31
 506:	ec 55       	subi	r30, 0x5C	; 92
 508:	ff 4f       	sbci	r31, 0xFF	; 255
 50a:	85 91       	lpm	r24, Z+
 50c:	94 91       	lpm	r25, Z
 50e:	9f 87       	std	Y+15, r25	; 0x0f
 510:	8e 87       	std	Y+14, r24	; 0x0e
 512:	df 91       	pop	r29
 514:	cf 91       	pop	r28
 516:	1f 91       	pop	r17
 518:	08 95       	ret

0000051a <_ZN14SoftwareSerialC1Ehhb>:
 51a:	1f 93       	push	r17
 51c:	cf 93       	push	r28
 51e:	df 93       	push	r29
 520:	ec 01       	movw	r28, r24
 522:	16 2f       	mov	r17, r22
 524:	1b 82       	std	Y+3, r1	; 0x03
 526:	1a 82       	std	Y+2, r1	; 0x02
 528:	88 ee       	ldi	r24, 0xE8	; 232
 52a:	93 e0       	ldi	r25, 0x03	; 3
 52c:	a0 e0       	ldi	r26, 0x00	; 0
 52e:	b0 e0       	ldi	r27, 0x00	; 0
 530:	8c 83       	std	Y+4, r24	; 0x04
 532:	9d 83       	std	Y+5, r25	; 0x05
 534:	ae 83       	std	Y+6, r26	; 0x06
 536:	bf 83       	std	Y+7, r27	; 0x07
 538:	86 e0       	ldi	r24, 0x06	; 6
 53a:	91 e0       	ldi	r25, 0x01	; 1
 53c:	99 83       	std	Y+1, r25	; 0x01
 53e:	88 83       	st	Y, r24
 540:	1f 8a       	std	Y+23, r1	; 0x17
 542:	1e 8a       	std	Y+22, r1	; 0x16
 544:	19 8e       	std	Y+25, r1	; 0x19
 546:	18 8e       	std	Y+24, r1	; 0x18
 548:	1b 8e       	std	Y+27, r1	; 0x1b
 54a:	1a 8e       	std	Y+26, r1	; 0x1a
 54c:	1d 8e       	std	Y+29, r1	; 0x1d
 54e:	1c 8e       	std	Y+28, r1	; 0x1c
 550:	8e 8d       	ldd	r24, Y+30	; 0x1e
 552:	8e 7f       	andi	r24, 0xFE	; 254
 554:	20 fb       	bst	r18, 0
 556:	81 f9       	bld	r24, 1
 558:	8e 8f       	std	Y+30, r24	; 0x1e
 55a:	64 2f       	mov	r22, r20
 55c:	ce 01       	movw	r24, r28
 55e:	0e 94 3b 02 	call	0x476	; 0x476 <_ZN14SoftwareSerial5setTXEh>
 562:	61 2f       	mov	r22, r17
 564:	ce 01       	movw	r24, r28
 566:	df 91       	pop	r29
 568:	cf 91       	pop	r28
 56a:	1f 91       	pop	r17
 56c:	0c 94 64 02 	jmp	0x4c8	; 0x4c8 <_ZN14SoftwareSerial5setRXEh>

00000570 <__vector_18>:
 570:	1f 92       	push	r1
 572:	0f 92       	push	r0
 574:	0f b6       	in	r0, 0x3f	; 63
 576:	0f 92       	push	r0
 578:	11 24       	eor	r1, r1
 57a:	2f 93       	push	r18
 57c:	8f 93       	push	r24
 57e:	9f 93       	push	r25
 580:	ef 93       	push	r30
 582:	ff 93       	push	r31
 584:	e0 91 b8 01 	lds	r30, 0x01B8	; 0x8001b8 <Serial+0x10>
 588:	f0 91 b9 01 	lds	r31, 0x01B9	; 0x8001b9 <Serial+0x11>
 58c:	80 81       	ld	r24, Z
 58e:	e0 91 be 01 	lds	r30, 0x01BE	; 0x8001be <Serial+0x16>
 592:	f0 91 bf 01 	lds	r31, 0x01BF	; 0x8001bf <Serial+0x17>
 596:	82 fd       	sbrc	r24, 2
 598:	12 c0       	rjmp	.+36     	; 0x5be <__vector_18+0x4e>
 59a:	90 81       	ld	r25, Z
 59c:	80 91 c1 01 	lds	r24, 0x01C1	; 0x8001c1 <Serial+0x19>
 5a0:	8f 5f       	subi	r24, 0xFF	; 255
 5a2:	8f 73       	andi	r24, 0x3F	; 63
 5a4:	20 91 c2 01 	lds	r18, 0x01C2	; 0x8001c2 <Serial+0x1a>
 5a8:	82 17       	cp	r24, r18
 5aa:	51 f0       	breq	.+20     	; 0x5c0 <__vector_18+0x50>
 5ac:	e0 91 c1 01 	lds	r30, 0x01C1	; 0x8001c1 <Serial+0x19>
 5b0:	f0 e0       	ldi	r31, 0x00	; 0
 5b2:	e8 55       	subi	r30, 0x58	; 88
 5b4:	fe 4f       	sbci	r31, 0xFE	; 254
 5b6:	95 8f       	std	Z+29, r25	; 0x1d
 5b8:	80 93 c1 01 	sts	0x01C1, r24	; 0x8001c1 <Serial+0x19>
 5bc:	01 c0       	rjmp	.+2      	; 0x5c0 <__vector_18+0x50>
 5be:	80 81       	ld	r24, Z
 5c0:	ff 91       	pop	r31
 5c2:	ef 91       	pop	r30
 5c4:	9f 91       	pop	r25
 5c6:	8f 91       	pop	r24
 5c8:	2f 91       	pop	r18
 5ca:	0f 90       	pop	r0
 5cc:	0f be       	out	0x3f, r0	; 63
 5ce:	0f 90       	pop	r0
 5d0:	1f 90       	pop	r1
 5d2:	18 95       	reti

000005d4 <__vector_19>:
 5d4:	1f 92       	push	r1
 5d6:	0f 92       	push	r0
 5d8:	0f b6       	in	r0, 0x3f	; 63
 5da:	0f 92       	push	r0
 5dc:	11 24       	eor	r1, r1
 5de:	2f 93       	push	r18
 5e0:	3f 93       	push	r19
 5e2:	4f 93       	push	r20
 5e4:	5f 93       	push	r21
 5e6:	6f 93       	push	r22
 5e8:	7f 93       	push	r23
 5ea:	8f 93       	push	r24
 5ec:	9f 93       	push	r25
 5ee:	af 93       	push	r26
 5f0:	bf 93       	push	r27
 5f2:	ef 93       	push	r30
 5f4:	ff 93       	push	r31
 5f6:	88 ea       	ldi	r24, 0xA8	; 168
 5f8:	91 e0       	ldi	r25, 0x01	; 1
 5fa:	0e 94 46 05 	call	0xa8c	; 0xa8c <_ZN14HardwareSerial17_tx_udr_empty_irqEv>
 5fe:	ff 91       	pop	r31
 600:	ef 91       	pop	r30
 602:	bf 91       	pop	r27
 604:	af 91       	pop	r26
 606:	9f 91       	pop	r25
 608:	8f 91       	pop	r24
 60a:	7f 91       	pop	r23
 60c:	6f 91       	pop	r22
 60e:	5f 91       	pop	r21
 610:	4f 91       	pop	r20
 612:	3f 91       	pop	r19
 614:	2f 91       	pop	r18
 616:	0f 90       	pop	r0
 618:	0f be       	out	0x3f, r0	; 63
 61a:	0f 90       	pop	r0
 61c:	1f 90       	pop	r1
 61e:	18 95       	reti

00000620 <_Z17Serial0_availablev>:
 620:	88 ea       	ldi	r24, 0xA8	; 168
 622:	91 e0       	ldi	r25, 0x01	; 1
 624:	0e 94 fb 04 	call	0x9f6	; 0x9f6 <_ZN14HardwareSerial9availableEv>
 628:	21 e0       	ldi	r18, 0x01	; 1
 62a:	89 2b       	or	r24, r25
 62c:	09 f4       	brne	.+2      	; 0x630 <_Z17Serial0_availablev+0x10>
 62e:	20 e0       	ldi	r18, 0x00	; 0
 630:	82 2f       	mov	r24, r18
 632:	08 95       	ret

00000634 <_GLOBAL__sub_I___vector_18>:
 634:	e8 ea       	ldi	r30, 0xA8	; 168
 636:	f1 e0       	ldi	r31, 0x01	; 1
 638:	13 82       	std	Z+3, r1	; 0x03
 63a:	12 82       	std	Z+2, r1	; 0x02
 63c:	88 ee       	ldi	r24, 0xE8	; 232
 63e:	93 e0       	ldi	r25, 0x03	; 3
 640:	a0 e0       	ldi	r26, 0x00	; 0
 642:	b0 e0       	ldi	r27, 0x00	; 0
 644:	84 83       	std	Z+4, r24	; 0x04
 646:	95 83       	std	Z+5, r25	; 0x05
 648:	a6 83       	std	Z+6, r26	; 0x06
 64a:	b7 83       	std	Z+7, r27	; 0x07
 64c:	88 e1       	ldi	r24, 0x18	; 24
 64e:	91 e0       	ldi	r25, 0x01	; 1
 650:	91 83       	std	Z+1, r25	; 0x01
 652:	80 83       	st	Z, r24
 654:	85 ec       	ldi	r24, 0xC5	; 197
 656:	90 e0       	ldi	r25, 0x00	; 0
 658:	95 87       	std	Z+13, r25	; 0x0d
 65a:	84 87       	std	Z+12, r24	; 0x0c
 65c:	84 ec       	ldi	r24, 0xC4	; 196
 65e:	90 e0       	ldi	r25, 0x00	; 0
 660:	97 87       	std	Z+15, r25	; 0x0f
 662:	86 87       	std	Z+14, r24	; 0x0e
 664:	80 ec       	ldi	r24, 0xC0	; 192
 666:	90 e0       	ldi	r25, 0x00	; 0
 668:	91 8b       	std	Z+17, r25	; 0x11
 66a:	80 8b       	std	Z+16, r24	; 0x10
 66c:	81 ec       	ldi	r24, 0xC1	; 193
 66e:	90 e0       	ldi	r25, 0x00	; 0
 670:	93 8b       	std	Z+19, r25	; 0x13
 672:	82 8b       	std	Z+18, r24	; 0x12
 674:	82 ec       	ldi	r24, 0xC2	; 194
 676:	90 e0       	ldi	r25, 0x00	; 0
 678:	95 8b       	std	Z+21, r25	; 0x15
 67a:	84 8b       	std	Z+20, r24	; 0x14
 67c:	86 ec       	ldi	r24, 0xC6	; 198
 67e:	90 e0       	ldi	r25, 0x00	; 0
 680:	97 8b       	std	Z+23, r25	; 0x17
 682:	86 8b       	std	Z+22, r24	; 0x16
 684:	11 8e       	std	Z+25, r1	; 0x19
 686:	12 8e       	std	Z+26, r1	; 0x1a
 688:	13 8e       	std	Z+27, r1	; 0x1b
 68a:	14 8e       	std	Z+28, r1	; 0x1c
 68c:	08 95       	ret

0000068e <initVariant>:
 68e:	08 95       	ret

00000690 <main>:
 690:	0e 94 2c 04 	call	0x858	; 0x858 <init>
 694:	0e 94 47 03 	call	0x68e	; 0x68e <initVariant>
 698:	0e 94 a6 00 	call	0x14c	; 0x14c <setup>
 69c:	c8 e3       	ldi	r28, 0x38	; 56
 69e:	d5 e0       	ldi	r29, 0x05	; 5
 6a0:	0e 94 e3 00 	call	0x1c6	; 0x1c6 <loop>
 6a4:	20 97       	sbiw	r28, 0x00	; 0
 6a6:	e1 f3       	breq	.-8      	; 0x6a0 <main+0x10>
 6a8:	0e 94 38 05 	call	0xa70	; 0xa70 <_Z14serialEventRunv>
 6ac:	f9 cf       	rjmp	.-14     	; 0x6a0 <main+0x10>

000006ae <_ZN5Print5writeEPKhj>:
 6ae:	cf 92       	push	r12
 6b0:	df 92       	push	r13
 6b2:	ef 92       	push	r14
 6b4:	ff 92       	push	r15
 6b6:	0f 93       	push	r16
 6b8:	1f 93       	push	r17
 6ba:	cf 93       	push	r28
 6bc:	df 93       	push	r29
 6be:	6c 01       	movw	r12, r24
 6c0:	7a 01       	movw	r14, r20
 6c2:	8b 01       	movw	r16, r22
 6c4:	c0 e0       	ldi	r28, 0x00	; 0
 6c6:	d0 e0       	ldi	r29, 0x00	; 0
 6c8:	ce 15       	cp	r28, r14
 6ca:	df 05       	cpc	r29, r15
 6cc:	81 f0       	breq	.+32     	; 0x6ee <_ZN5Print5writeEPKhj+0x40>
 6ce:	d8 01       	movw	r26, r16
 6d0:	6d 91       	ld	r22, X+
 6d2:	8d 01       	movw	r16, r26
 6d4:	d6 01       	movw	r26, r12
 6d6:	ed 91       	ld	r30, X+
 6d8:	fc 91       	ld	r31, X
 6da:	01 90       	ld	r0, Z+
 6dc:	f0 81       	ld	r31, Z
 6de:	e0 2d       	mov	r30, r0
 6e0:	c6 01       	movw	r24, r12
 6e2:	09 95       	icall
 6e4:	89 2b       	or	r24, r25
 6e6:	11 f0       	breq	.+4      	; 0x6ec <_ZN5Print5writeEPKhj+0x3e>
 6e8:	21 96       	adiw	r28, 0x01	; 1
 6ea:	ee cf       	rjmp	.-36     	; 0x6c8 <_ZN5Print5writeEPKhj+0x1a>
 6ec:	7e 01       	movw	r14, r28
 6ee:	c7 01       	movw	r24, r14
 6f0:	df 91       	pop	r29
 6f2:	cf 91       	pop	r28
 6f4:	1f 91       	pop	r17
 6f6:	0f 91       	pop	r16
 6f8:	ff 90       	pop	r15
 6fa:	ef 90       	pop	r14
 6fc:	df 90       	pop	r13
 6fe:	cf 90       	pop	r12
 700:	08 95       	ret

00000702 <__vector_16>:
 702:	1f 92       	push	r1
 704:	0f 92       	push	r0
 706:	0f b6       	in	r0, 0x3f	; 63
 708:	0f 92       	push	r0
 70a:	11 24       	eor	r1, r1
 70c:	2f 93       	push	r18
 70e:	3f 93       	push	r19
 710:	8f 93       	push	r24
 712:	9f 93       	push	r25
 714:	af 93       	push	r26
 716:	bf 93       	push	r27
 718:	80 91 46 02 	lds	r24, 0x0246	; 0x800246 <timer0_millis>
 71c:	90 91 47 02 	lds	r25, 0x0247	; 0x800247 <timer0_millis+0x1>
 720:	a0 91 48 02 	lds	r26, 0x0248	; 0x800248 <timer0_millis+0x2>
 724:	b0 91 49 02 	lds	r27, 0x0249	; 0x800249 <timer0_millis+0x3>
 728:	30 91 45 02 	lds	r19, 0x0245	; 0x800245 <timer0_fract>
 72c:	23 e0       	ldi	r18, 0x03	; 3
 72e:	23 0f       	add	r18, r19
 730:	2d 37       	cpi	r18, 0x7D	; 125
 732:	20 f4       	brcc	.+8      	; 0x73c <__vector_16+0x3a>
 734:	01 96       	adiw	r24, 0x01	; 1
 736:	a1 1d       	adc	r26, r1
 738:	b1 1d       	adc	r27, r1
 73a:	05 c0       	rjmp	.+10     	; 0x746 <__vector_16+0x44>
 73c:	26 e8       	ldi	r18, 0x86	; 134
 73e:	23 0f       	add	r18, r19
 740:	02 96       	adiw	r24, 0x02	; 2
 742:	a1 1d       	adc	r26, r1
 744:	b1 1d       	adc	r27, r1
 746:	20 93 45 02 	sts	0x0245, r18	; 0x800245 <timer0_fract>
 74a:	80 93 46 02 	sts	0x0246, r24	; 0x800246 <timer0_millis>
 74e:	90 93 47 02 	sts	0x0247, r25	; 0x800247 <timer0_millis+0x1>
 752:	a0 93 48 02 	sts	0x0248, r26	; 0x800248 <timer0_millis+0x2>
 756:	b0 93 49 02 	sts	0x0249, r27	; 0x800249 <timer0_millis+0x3>
 75a:	80 91 4a 02 	lds	r24, 0x024A	; 0x80024a <timer0_overflow_count>
 75e:	90 91 4b 02 	lds	r25, 0x024B	; 0x80024b <timer0_overflow_count+0x1>
 762:	a0 91 4c 02 	lds	r26, 0x024C	; 0x80024c <timer0_overflow_count+0x2>
 766:	b0 91 4d 02 	lds	r27, 0x024D	; 0x80024d <timer0_overflow_count+0x3>
 76a:	01 96       	adiw	r24, 0x01	; 1
 76c:	a1 1d       	adc	r26, r1
 76e:	b1 1d       	adc	r27, r1
 770:	80 93 4a 02 	sts	0x024A, r24	; 0x80024a <timer0_overflow_count>
 774:	90 93 4b 02 	sts	0x024B, r25	; 0x80024b <timer0_overflow_count+0x1>
 778:	a0 93 4c 02 	sts	0x024C, r26	; 0x80024c <timer0_overflow_count+0x2>
 77c:	b0 93 4d 02 	sts	0x024D, r27	; 0x80024d <timer0_overflow_count+0x3>
 780:	bf 91       	pop	r27
 782:	af 91       	pop	r26
 784:	9f 91       	pop	r25
 786:	8f 91       	pop	r24
 788:	3f 91       	pop	r19
 78a:	2f 91       	pop	r18
 78c:	0f 90       	pop	r0
 78e:	0f be       	out	0x3f, r0	; 63
 790:	0f 90       	pop	r0
 792:	1f 90       	pop	r1
 794:	18 95       	reti

00000796 <micros>:
 796:	3f b7       	in	r19, 0x3f	; 63
 798:	f8 94       	cli
 79a:	80 91 4a 02 	lds	r24, 0x024A	; 0x80024a <timer0_overflow_count>
 79e:	90 91 4b 02 	lds	r25, 0x024B	; 0x80024b <timer0_overflow_count+0x1>
 7a2:	a0 91 4c 02 	lds	r26, 0x024C	; 0x80024c <timer0_overflow_count+0x2>
 7a6:	b0 91 4d 02 	lds	r27, 0x024D	; 0x80024d <timer0_overflow_count+0x3>
 7aa:	26 b5       	in	r18, 0x26	; 38
 7ac:	a8 9b       	sbis	0x15, 0	; 21
 7ae:	05 c0       	rjmp	.+10     	; 0x7ba <micros+0x24>
 7b0:	2f 3f       	cpi	r18, 0xFF	; 255
 7b2:	19 f0       	breq	.+6      	; 0x7ba <micros+0x24>
 7b4:	01 96       	adiw	r24, 0x01	; 1
 7b6:	a1 1d       	adc	r26, r1
 7b8:	b1 1d       	adc	r27, r1
 7ba:	3f bf       	out	0x3f, r19	; 63
 7bc:	ba 2f       	mov	r27, r26
 7be:	a9 2f       	mov	r26, r25
 7c0:	98 2f       	mov	r25, r24
 7c2:	88 27       	eor	r24, r24
 7c4:	82 0f       	add	r24, r18
 7c6:	91 1d       	adc	r25, r1
 7c8:	a1 1d       	adc	r26, r1
 7ca:	b1 1d       	adc	r27, r1
 7cc:	bc 01       	movw	r22, r24
 7ce:	cd 01       	movw	r24, r26
 7d0:	42 e0       	ldi	r20, 0x02	; 2
 7d2:	66 0f       	add	r22, r22
 7d4:	77 1f       	adc	r23, r23
 7d6:	88 1f       	adc	r24, r24
 7d8:	99 1f       	adc	r25, r25
 7da:	4a 95       	dec	r20
 7dc:	d1 f7       	brne	.-12     	; 0x7d2 <micros+0x3c>
 7de:	08 95       	ret

000007e0 <delay>:
 7e0:	8f 92       	push	r8
 7e2:	9f 92       	push	r9
 7e4:	af 92       	push	r10
 7e6:	bf 92       	push	r11
 7e8:	cf 92       	push	r12
 7ea:	df 92       	push	r13
 7ec:	ef 92       	push	r14
 7ee:	ff 92       	push	r15
 7f0:	6b 01       	movw	r12, r22
 7f2:	7c 01       	movw	r14, r24
 7f4:	0e 94 cb 03 	call	0x796	; 0x796 <micros>
 7f8:	4b 01       	movw	r8, r22
 7fa:	5c 01       	movw	r10, r24
 7fc:	c1 14       	cp	r12, r1
 7fe:	d1 04       	cpc	r13, r1
 800:	e1 04       	cpc	r14, r1
 802:	f1 04       	cpc	r15, r1
 804:	01 f1       	breq	.+64     	; 0x846 <delay+0x66>
 806:	0e 94 d0 05 	call	0xba0	; 0xba0 <yield>
 80a:	0e 94 cb 03 	call	0x796	; 0x796 <micros>
 80e:	dc 01       	movw	r26, r24
 810:	cb 01       	movw	r24, r22
 812:	88 19       	sub	r24, r8
 814:	99 09       	sbc	r25, r9
 816:	aa 09       	sbc	r26, r10
 818:	bb 09       	sbc	r27, r11
 81a:	88 3e       	cpi	r24, 0xE8	; 232
 81c:	93 40       	sbci	r25, 0x03	; 3
 81e:	a1 05       	cpc	r26, r1
 820:	b1 05       	cpc	r27, r1
 822:	60 f3       	brcs	.-40     	; 0x7fc <delay+0x1c>
 824:	21 e0       	ldi	r18, 0x01	; 1
 826:	c2 1a       	sub	r12, r18
 828:	d1 08       	sbc	r13, r1
 82a:	e1 08       	sbc	r14, r1
 82c:	f1 08       	sbc	r15, r1
 82e:	88 ee       	ldi	r24, 0xE8	; 232
 830:	88 0e       	add	r8, r24
 832:	83 e0       	ldi	r24, 0x03	; 3
 834:	98 1e       	adc	r9, r24
 836:	a1 1c       	adc	r10, r1
 838:	b1 1c       	adc	r11, r1
 83a:	c1 14       	cp	r12, r1
 83c:	d1 04       	cpc	r13, r1
 83e:	e1 04       	cpc	r14, r1
 840:	f1 04       	cpc	r15, r1
 842:	19 f7       	brne	.-58     	; 0x80a <delay+0x2a>
 844:	db cf       	rjmp	.-74     	; 0x7fc <delay+0x1c>
 846:	ff 90       	pop	r15
 848:	ef 90       	pop	r14
 84a:	df 90       	pop	r13
 84c:	cf 90       	pop	r12
 84e:	bf 90       	pop	r11
 850:	af 90       	pop	r10
 852:	9f 90       	pop	r9
 854:	8f 90       	pop	r8
 856:	08 95       	ret

00000858 <init>:
 858:	78 94       	sei
 85a:	84 b5       	in	r24, 0x24	; 36
 85c:	82 60       	ori	r24, 0x02	; 2
 85e:	84 bd       	out	0x24, r24	; 36
 860:	84 b5       	in	r24, 0x24	; 36
 862:	81 60       	ori	r24, 0x01	; 1
 864:	84 bd       	out	0x24, r24	; 36
 866:	85 b5       	in	r24, 0x25	; 37
 868:	82 60       	ori	r24, 0x02	; 2
 86a:	85 bd       	out	0x25, r24	; 37
 86c:	85 b5       	in	r24, 0x25	; 37
 86e:	81 60       	ori	r24, 0x01	; 1
 870:	85 bd       	out	0x25, r24	; 37
 872:	ee e6       	ldi	r30, 0x6E	; 110
 874:	f0 e0       	ldi	r31, 0x00	; 0
 876:	80 81       	ld	r24, Z
 878:	81 60       	ori	r24, 0x01	; 1
 87a:	80 83       	st	Z, r24
 87c:	e1 e8       	ldi	r30, 0x81	; 129
 87e:	f0 e0       	ldi	r31, 0x00	; 0
 880:	10 82       	st	Z, r1
 882:	80 81       	ld	r24, Z
 884:	82 60       	ori	r24, 0x02	; 2
 886:	80 83       	st	Z, r24
 888:	80 81       	ld	r24, Z
 88a:	81 60       	ori	r24, 0x01	; 1
 88c:	80 83       	st	Z, r24
 88e:	e0 e8       	ldi	r30, 0x80	; 128
 890:	f0 e0       	ldi	r31, 0x00	; 0
 892:	80 81       	ld	r24, Z
 894:	81 60       	ori	r24, 0x01	; 1
 896:	80 83       	st	Z, r24
 898:	e1 eb       	ldi	r30, 0xB1	; 177
 89a:	f0 e0       	ldi	r31, 0x00	; 0
 89c:	80 81       	ld	r24, Z
 89e:	84 60       	ori	r24, 0x04	; 4
 8a0:	80 83       	st	Z, r24
 8a2:	e0 eb       	ldi	r30, 0xB0	; 176
 8a4:	f0 e0       	ldi	r31, 0x00	; 0
 8a6:	80 81       	ld	r24, Z
 8a8:	81 60       	ori	r24, 0x01	; 1
 8aa:	80 83       	st	Z, r24
 8ac:	ea e7       	ldi	r30, 0x7A	; 122
 8ae:	f0 e0       	ldi	r31, 0x00	; 0
 8b0:	80 81       	ld	r24, Z
 8b2:	84 60       	ori	r24, 0x04	; 4
 8b4:	80 83       	st	Z, r24
 8b6:	80 81       	ld	r24, Z
 8b8:	82 60       	ori	r24, 0x02	; 2
 8ba:	80 83       	st	Z, r24
 8bc:	80 81       	ld	r24, Z
 8be:	81 60       	ori	r24, 0x01	; 1
 8c0:	80 83       	st	Z, r24
 8c2:	80 81       	ld	r24, Z
 8c4:	80 68       	ori	r24, 0x80	; 128
 8c6:	80 83       	st	Z, r24
 8c8:	10 92 c1 00 	sts	0x00C1, r1	; 0x8000c1 <__TEXT_REGION_LENGTH__+0x7e00c1>
 8cc:	08 95       	ret

000008ce <turnOffPWM>:
 8ce:	83 30       	cpi	r24, 0x03	; 3
 8d0:	81 f0       	breq	.+32     	; 0x8f2 <turnOffPWM+0x24>
 8d2:	28 f4       	brcc	.+10     	; 0x8de <turnOffPWM+0x10>
 8d4:	81 30       	cpi	r24, 0x01	; 1
 8d6:	99 f0       	breq	.+38     	; 0x8fe <turnOffPWM+0x30>
 8d8:	82 30       	cpi	r24, 0x02	; 2
 8da:	a1 f0       	breq	.+40     	; 0x904 <__stack+0x5>
 8dc:	08 95       	ret
 8de:	87 30       	cpi	r24, 0x07	; 7
 8e0:	a9 f0       	breq	.+42     	; 0x90c <__stack+0xd>
 8e2:	88 30       	cpi	r24, 0x08	; 8
 8e4:	b9 f0       	breq	.+46     	; 0x914 <__stack+0x15>
 8e6:	84 30       	cpi	r24, 0x04	; 4
 8e8:	d1 f4       	brne	.+52     	; 0x91e <__stack+0x1f>
 8ea:	80 91 80 00 	lds	r24, 0x0080	; 0x800080 <__TEXT_REGION_LENGTH__+0x7e0080>
 8ee:	8f 7d       	andi	r24, 0xDF	; 223
 8f0:	03 c0       	rjmp	.+6      	; 0x8f8 <turnOffPWM+0x2a>
 8f2:	80 91 80 00 	lds	r24, 0x0080	; 0x800080 <__TEXT_REGION_LENGTH__+0x7e0080>
 8f6:	8f 77       	andi	r24, 0x7F	; 127
 8f8:	80 93 80 00 	sts	0x0080, r24	; 0x800080 <__TEXT_REGION_LENGTH__+0x7e0080>
 8fc:	08 95       	ret
 8fe:	84 b5       	in	r24, 0x24	; 36
 900:	8f 77       	andi	r24, 0x7F	; 127
 902:	02 c0       	rjmp	.+4      	; 0x908 <__stack+0x9>
 904:	84 b5       	in	r24, 0x24	; 36
 906:	8f 7d       	andi	r24, 0xDF	; 223
 908:	84 bd       	out	0x24, r24	; 36
 90a:	08 95       	ret
 90c:	80 91 b0 00 	lds	r24, 0x00B0	; 0x8000b0 <__TEXT_REGION_LENGTH__+0x7e00b0>
 910:	8f 77       	andi	r24, 0x7F	; 127
 912:	03 c0       	rjmp	.+6      	; 0x91a <__stack+0x1b>
 914:	80 91 b0 00 	lds	r24, 0x00B0	; 0x8000b0 <__TEXT_REGION_LENGTH__+0x7e00b0>
 918:	8f 7d       	andi	r24, 0xDF	; 223
 91a:	80 93 b0 00 	sts	0x00B0, r24	; 0x8000b0 <__TEXT_REGION_LENGTH__+0x7e00b0>
 91e:	08 95       	ret

00000920 <pinMode>:
 920:	cf 93       	push	r28
 922:	df 93       	push	r29
 924:	90 e0       	ldi	r25, 0x00	; 0
 926:	fc 01       	movw	r30, r24
 928:	e4 58       	subi	r30, 0x84	; 132
 92a:	ff 4f       	sbci	r31, 0xFF	; 255
 92c:	24 91       	lpm	r18, Z
 92e:	fc 01       	movw	r30, r24
 930:	e0 57       	subi	r30, 0x70	; 112
 932:	ff 4f       	sbci	r31, 0xFF	; 255
 934:	84 91       	lpm	r24, Z
 936:	88 23       	and	r24, r24
 938:	61 f1       	breq	.+88     	; 0x992 <pinMode+0x72>
 93a:	90 e0       	ldi	r25, 0x00	; 0
 93c:	88 0f       	add	r24, r24
 93e:	99 1f       	adc	r25, r25
 940:	fc 01       	movw	r30, r24
 942:	e8 54       	subi	r30, 0x48	; 72
 944:	ff 4f       	sbci	r31, 0xFF	; 255
 946:	c5 91       	lpm	r28, Z+
 948:	d4 91       	lpm	r29, Z
 94a:	fc 01       	movw	r30, r24
 94c:	e2 55       	subi	r30, 0x52	; 82
 94e:	ff 4f       	sbci	r31, 0xFF	; 255
 950:	a5 91       	lpm	r26, Z+
 952:	b4 91       	lpm	r27, Z
 954:	61 11       	cpse	r22, r1
 956:	09 c0       	rjmp	.+18     	; 0x96a <pinMode+0x4a>
 958:	9f b7       	in	r25, 0x3f	; 63
 95a:	f8 94       	cli
 95c:	88 81       	ld	r24, Y
 95e:	20 95       	com	r18
 960:	82 23       	and	r24, r18
 962:	88 83       	st	Y, r24
 964:	ec 91       	ld	r30, X
 966:	2e 23       	and	r18, r30
 968:	0b c0       	rjmp	.+22     	; 0x980 <pinMode+0x60>
 96a:	62 30       	cpi	r22, 0x02	; 2
 96c:	61 f4       	brne	.+24     	; 0x986 <pinMode+0x66>
 96e:	9f b7       	in	r25, 0x3f	; 63
 970:	f8 94       	cli
 972:	88 81       	ld	r24, Y
 974:	32 2f       	mov	r19, r18
 976:	30 95       	com	r19
 978:	83 23       	and	r24, r19
 97a:	88 83       	st	Y, r24
 97c:	ec 91       	ld	r30, X
 97e:	2e 2b       	or	r18, r30
 980:	2c 93       	st	X, r18
 982:	9f bf       	out	0x3f, r25	; 63
 984:	06 c0       	rjmp	.+12     	; 0x992 <pinMode+0x72>
 986:	8f b7       	in	r24, 0x3f	; 63
 988:	f8 94       	cli
 98a:	e8 81       	ld	r30, Y
 98c:	2e 2b       	or	r18, r30
 98e:	28 83       	st	Y, r18
 990:	8f bf       	out	0x3f, r24	; 63
 992:	df 91       	pop	r29
 994:	cf 91       	pop	r28
 996:	08 95       	ret

00000998 <digitalWrite>:
 998:	1f 93       	push	r17
 99a:	cf 93       	push	r28
 99c:	df 93       	push	r29
 99e:	28 2f       	mov	r18, r24
 9a0:	30 e0       	ldi	r19, 0x00	; 0
 9a2:	f9 01       	movw	r30, r18
 9a4:	e8 59       	subi	r30, 0x98	; 152
 9a6:	ff 4f       	sbci	r31, 0xFF	; 255
 9a8:	84 91       	lpm	r24, Z
 9aa:	f9 01       	movw	r30, r18
 9ac:	e4 58       	subi	r30, 0x84	; 132
 9ae:	ff 4f       	sbci	r31, 0xFF	; 255
 9b0:	d4 91       	lpm	r29, Z
 9b2:	f9 01       	movw	r30, r18
 9b4:	e0 57       	subi	r30, 0x70	; 112
 9b6:	ff 4f       	sbci	r31, 0xFF	; 255
 9b8:	c4 91       	lpm	r28, Z
 9ba:	cc 23       	and	r28, r28
 9bc:	c1 f0       	breq	.+48     	; 0x9ee <digitalWrite+0x56>
 9be:	16 2f       	mov	r17, r22
 9c0:	81 11       	cpse	r24, r1
 9c2:	0e 94 67 04 	call	0x8ce	; 0x8ce <turnOffPWM>
 9c6:	ec 2f       	mov	r30, r28
 9c8:	f0 e0       	ldi	r31, 0x00	; 0
 9ca:	ee 0f       	add	r30, r30
 9cc:	ff 1f       	adc	r31, r31
 9ce:	e2 55       	subi	r30, 0x52	; 82
 9d0:	ff 4f       	sbci	r31, 0xFF	; 255
 9d2:	a5 91       	lpm	r26, Z+
 9d4:	b4 91       	lpm	r27, Z
 9d6:	9f b7       	in	r25, 0x3f	; 63
 9d8:	f8 94       	cli
 9da:	11 11       	cpse	r17, r1
 9dc:	04 c0       	rjmp	.+8      	; 0x9e6 <digitalWrite+0x4e>
 9de:	8c 91       	ld	r24, X
 9e0:	d0 95       	com	r29
 9e2:	d8 23       	and	r29, r24
 9e4:	02 c0       	rjmp	.+4      	; 0x9ea <digitalWrite+0x52>
 9e6:	ec 91       	ld	r30, X
 9e8:	de 2b       	or	r29, r30
 9ea:	dc 93       	st	X, r29
 9ec:	9f bf       	out	0x3f, r25	; 63
 9ee:	df 91       	pop	r29
 9f0:	cf 91       	pop	r28
 9f2:	1f 91       	pop	r17
 9f4:	08 95       	ret

000009f6 <_ZN14HardwareSerial9availableEv>:
 9f6:	fc 01       	movw	r30, r24
 9f8:	91 8d       	ldd	r25, Z+25	; 0x19
 9fa:	22 8d       	ldd	r18, Z+26	; 0x1a
 9fc:	89 2f       	mov	r24, r25
 9fe:	90 e0       	ldi	r25, 0x00	; 0
 a00:	80 5c       	subi	r24, 0xC0	; 192
 a02:	9f 4f       	sbci	r25, 0xFF	; 255
 a04:	82 1b       	sub	r24, r18
 a06:	91 09       	sbc	r25, r1
 a08:	8f 73       	andi	r24, 0x3F	; 63
 a0a:	99 27       	eor	r25, r25
 a0c:	08 95       	ret

00000a0e <_ZN14HardwareSerial4peekEv>:
 a0e:	fc 01       	movw	r30, r24
 a10:	91 8d       	ldd	r25, Z+25	; 0x19
 a12:	82 8d       	ldd	r24, Z+26	; 0x1a
 a14:	98 17       	cp	r25, r24
 a16:	31 f0       	breq	.+12     	; 0xa24 <_ZN14HardwareSerial4peekEv+0x16>
 a18:	82 8d       	ldd	r24, Z+26	; 0x1a
 a1a:	e8 0f       	add	r30, r24
 a1c:	f1 1d       	adc	r31, r1
 a1e:	85 8d       	ldd	r24, Z+29	; 0x1d
 a20:	90 e0       	ldi	r25, 0x00	; 0
 a22:	08 95       	ret
 a24:	8f ef       	ldi	r24, 0xFF	; 255
 a26:	9f ef       	ldi	r25, 0xFF	; 255
 a28:	08 95       	ret

00000a2a <_ZN14HardwareSerial4readEv>:
 a2a:	fc 01       	movw	r30, r24
 a2c:	91 8d       	ldd	r25, Z+25	; 0x19
 a2e:	82 8d       	ldd	r24, Z+26	; 0x1a
 a30:	98 17       	cp	r25, r24
 a32:	61 f0       	breq	.+24     	; 0xa4c <_ZN14HardwareSerial4readEv+0x22>
 a34:	82 8d       	ldd	r24, Z+26	; 0x1a
 a36:	df 01       	movw	r26, r30
 a38:	a8 0f       	add	r26, r24
 a3a:	b1 1d       	adc	r27, r1
 a3c:	5d 96       	adiw	r26, 0x1d	; 29
 a3e:	8c 91       	ld	r24, X
 a40:	92 8d       	ldd	r25, Z+26	; 0x1a
 a42:	9f 5f       	subi	r25, 0xFF	; 255
 a44:	9f 73       	andi	r25, 0x3F	; 63
 a46:	92 8f       	std	Z+26, r25	; 0x1a
 a48:	90 e0       	ldi	r25, 0x00	; 0
 a4a:	08 95       	ret
 a4c:	8f ef       	ldi	r24, 0xFF	; 255
 a4e:	9f ef       	ldi	r25, 0xFF	; 255
 a50:	08 95       	ret

00000a52 <_ZN14HardwareSerial17availableForWriteEv>:
 a52:	fc 01       	movw	r30, r24
 a54:	53 8d       	ldd	r21, Z+27	; 0x1b
 a56:	44 8d       	ldd	r20, Z+28	; 0x1c
 a58:	25 2f       	mov	r18, r21
 a5a:	30 e0       	ldi	r19, 0x00	; 0
 a5c:	84 2f       	mov	r24, r20
 a5e:	90 e0       	ldi	r25, 0x00	; 0
 a60:	82 1b       	sub	r24, r18
 a62:	93 0b       	sbc	r25, r19
 a64:	54 17       	cp	r21, r20
 a66:	10 f0       	brcs	.+4      	; 0xa6c <_ZN14HardwareSerial17availableForWriteEv+0x1a>
 a68:	cf 96       	adiw	r24, 0x3f	; 63
 a6a:	08 95       	ret
 a6c:	01 97       	sbiw	r24, 0x01	; 1
 a6e:	08 95       	ret

00000a70 <_Z14serialEventRunv>:
 a70:	80 e1       	ldi	r24, 0x10	; 16
 a72:	93 e0       	ldi	r25, 0x03	; 3
 a74:	89 2b       	or	r24, r25
 a76:	49 f0       	breq	.+18     	; 0xa8a <_Z14serialEventRunv+0x1a>
 a78:	80 e0       	ldi	r24, 0x00	; 0
 a7a:	90 e0       	ldi	r25, 0x00	; 0
 a7c:	89 2b       	or	r24, r25
 a7e:	29 f0       	breq	.+10     	; 0xa8a <_Z14serialEventRunv+0x1a>
 a80:	0e 94 10 03 	call	0x620	; 0x620 <_Z17Serial0_availablev>
 a84:	81 11       	cpse	r24, r1
 a86:	0c 94 00 00 	jmp	0	; 0x0 <__vectors>
 a8a:	08 95       	ret

00000a8c <_ZN14HardwareSerial17_tx_udr_empty_irqEv>:
 a8c:	fc 01       	movw	r30, r24
 a8e:	84 8d       	ldd	r24, Z+28	; 0x1c
 a90:	df 01       	movw	r26, r30
 a92:	a8 0f       	add	r26, r24
 a94:	b1 1d       	adc	r27, r1
 a96:	a3 5a       	subi	r26, 0xA3	; 163
 a98:	bf 4f       	sbci	r27, 0xFF	; 255
 a9a:	2c 91       	ld	r18, X
 a9c:	84 8d       	ldd	r24, Z+28	; 0x1c
 a9e:	90 e0       	ldi	r25, 0x00	; 0
 aa0:	01 96       	adiw	r24, 0x01	; 1
 aa2:	8f 73       	andi	r24, 0x3F	; 63
 aa4:	99 27       	eor	r25, r25
 aa6:	84 8f       	std	Z+28, r24	; 0x1c
 aa8:	a6 89       	ldd	r26, Z+22	; 0x16
 aaa:	b7 89       	ldd	r27, Z+23	; 0x17
 aac:	2c 93       	st	X, r18
 aae:	a0 89       	ldd	r26, Z+16	; 0x10
 ab0:	b1 89       	ldd	r27, Z+17	; 0x11
 ab2:	8c 91       	ld	r24, X
 ab4:	80 64       	ori	r24, 0x40	; 64
 ab6:	8c 93       	st	X, r24
 ab8:	93 8d       	ldd	r25, Z+27	; 0x1b
 aba:	84 8d       	ldd	r24, Z+28	; 0x1c
 abc:	98 13       	cpse	r25, r24
 abe:	06 c0       	rjmp	.+12     	; 0xacc <_ZN14HardwareSerial17_tx_udr_empty_irqEv+0x40>
 ac0:	02 88       	ldd	r0, Z+18	; 0x12
 ac2:	f3 89       	ldd	r31, Z+19	; 0x13
 ac4:	e0 2d       	mov	r30, r0
 ac6:	80 81       	ld	r24, Z
 ac8:	8f 7d       	andi	r24, 0xDF	; 223
 aca:	80 83       	st	Z, r24
 acc:	08 95       	ret

00000ace <_ZN14HardwareSerial5writeEh>:
 ace:	ef 92       	push	r14
 ad0:	ff 92       	push	r15
 ad2:	0f 93       	push	r16
 ad4:	1f 93       	push	r17
 ad6:	cf 93       	push	r28
 ad8:	df 93       	push	r29
 ada:	ec 01       	movw	r28, r24
 adc:	81 e0       	ldi	r24, 0x01	; 1
 ade:	88 8f       	std	Y+24, r24	; 0x18
 ae0:	9b 8d       	ldd	r25, Y+27	; 0x1b
 ae2:	8c 8d       	ldd	r24, Y+28	; 0x1c
 ae4:	98 13       	cpse	r25, r24
 ae6:	05 c0       	rjmp	.+10     	; 0xaf2 <_ZN14HardwareSerial5writeEh+0x24>
 ae8:	e8 89       	ldd	r30, Y+16	; 0x10
 aea:	f9 89       	ldd	r31, Y+17	; 0x11
 aec:	80 81       	ld	r24, Z
 aee:	85 fd       	sbrc	r24, 5
 af0:	24 c0       	rjmp	.+72     	; 0xb3a <_ZN14HardwareSerial5writeEh+0x6c>
 af2:	f6 2e       	mov	r15, r22
 af4:	0b 8d       	ldd	r16, Y+27	; 0x1b
 af6:	10 e0       	ldi	r17, 0x00	; 0
 af8:	0f 5f       	subi	r16, 0xFF	; 255
 afa:	1f 4f       	sbci	r17, 0xFF	; 255
 afc:	0f 73       	andi	r16, 0x3F	; 63
 afe:	11 27       	eor	r17, r17
 b00:	e0 2e       	mov	r14, r16
 b02:	8c 8d       	ldd	r24, Y+28	; 0x1c
 b04:	e8 12       	cpse	r14, r24
 b06:	0c c0       	rjmp	.+24     	; 0xb20 <_ZN14HardwareSerial5writeEh+0x52>
 b08:	0f b6       	in	r0, 0x3f	; 63
 b0a:	07 fc       	sbrc	r0, 7
 b0c:	fa cf       	rjmp	.-12     	; 0xb02 <_ZN14HardwareSerial5writeEh+0x34>
 b0e:	e8 89       	ldd	r30, Y+16	; 0x10
 b10:	f9 89       	ldd	r31, Y+17	; 0x11
 b12:	80 81       	ld	r24, Z
 b14:	85 ff       	sbrs	r24, 5
 b16:	f5 cf       	rjmp	.-22     	; 0xb02 <_ZN14HardwareSerial5writeEh+0x34>
 b18:	ce 01       	movw	r24, r28
 b1a:	0e 94 46 05 	call	0xa8c	; 0xa8c <_ZN14HardwareSerial17_tx_udr_empty_irqEv>
 b1e:	f1 cf       	rjmp	.-30     	; 0xb02 <_ZN14HardwareSerial5writeEh+0x34>
 b20:	8b 8d       	ldd	r24, Y+27	; 0x1b
 b22:	fe 01       	movw	r30, r28
 b24:	e8 0f       	add	r30, r24
 b26:	f1 1d       	adc	r31, r1
 b28:	e3 5a       	subi	r30, 0xA3	; 163
 b2a:	ff 4f       	sbci	r31, 0xFF	; 255
 b2c:	f0 82       	st	Z, r15
 b2e:	0b 8f       	std	Y+27, r16	; 0x1b
 b30:	ea 89       	ldd	r30, Y+18	; 0x12
 b32:	fb 89       	ldd	r31, Y+19	; 0x13
 b34:	80 81       	ld	r24, Z
 b36:	80 62       	ori	r24, 0x20	; 32
 b38:	07 c0       	rjmp	.+14     	; 0xb48 <_ZN14HardwareSerial5writeEh+0x7a>
 b3a:	ee 89       	ldd	r30, Y+22	; 0x16
 b3c:	ff 89       	ldd	r31, Y+23	; 0x17
 b3e:	60 83       	st	Z, r22
 b40:	e8 89       	ldd	r30, Y+16	; 0x10
 b42:	f9 89       	ldd	r31, Y+17	; 0x11
 b44:	80 81       	ld	r24, Z
 b46:	80 64       	ori	r24, 0x40	; 64
 b48:	80 83       	st	Z, r24
 b4a:	81 e0       	ldi	r24, 0x01	; 1
 b4c:	90 e0       	ldi	r25, 0x00	; 0
 b4e:	df 91       	pop	r29
 b50:	cf 91       	pop	r28
 b52:	1f 91       	pop	r17
 b54:	0f 91       	pop	r16
 b56:	ff 90       	pop	r15
 b58:	ef 90       	pop	r14
 b5a:	08 95       	ret

00000b5c <_ZN14HardwareSerial5flushEv>:
 b5c:	cf 93       	push	r28
 b5e:	df 93       	push	r29
 b60:	ec 01       	movw	r28, r24
 b62:	88 8d       	ldd	r24, Y+24	; 0x18
 b64:	88 23       	and	r24, r24
 b66:	c9 f0       	breq	.+50     	; 0xb9a <_ZN14HardwareSerial5flushEv+0x3e>
 b68:	ea 89       	ldd	r30, Y+18	; 0x12
 b6a:	fb 89       	ldd	r31, Y+19	; 0x13
 b6c:	80 81       	ld	r24, Z
 b6e:	85 fd       	sbrc	r24, 5
 b70:	05 c0       	rjmp	.+10     	; 0xb7c <_ZN14HardwareSerial5flushEv+0x20>
 b72:	a8 89       	ldd	r26, Y+16	; 0x10
 b74:	b9 89       	ldd	r27, Y+17	; 0x11
 b76:	8c 91       	ld	r24, X
 b78:	86 fd       	sbrc	r24, 6
 b7a:	0f c0       	rjmp	.+30     	; 0xb9a <_ZN14HardwareSerial5flushEv+0x3e>
 b7c:	0f b6       	in	r0, 0x3f	; 63
 b7e:	07 fc       	sbrc	r0, 7
 b80:	f5 cf       	rjmp	.-22     	; 0xb6c <_ZN14HardwareSerial5flushEv+0x10>
 b82:	80 81       	ld	r24, Z
 b84:	85 ff       	sbrs	r24, 5
 b86:	f2 cf       	rjmp	.-28     	; 0xb6c <_ZN14HardwareSerial5flushEv+0x10>
 b88:	a8 89       	ldd	r26, Y+16	; 0x10
 b8a:	b9 89       	ldd	r27, Y+17	; 0x11
 b8c:	8c 91       	ld	r24, X
 b8e:	85 ff       	sbrs	r24, 5
 b90:	ed cf       	rjmp	.-38     	; 0xb6c <_ZN14HardwareSerial5flushEv+0x10>
 b92:	ce 01       	movw	r24, r28
 b94:	0e 94 46 05 	call	0xa8c	; 0xa8c <_ZN14HardwareSerial17_tx_udr_empty_irqEv>
 b98:	e7 cf       	rjmp	.-50     	; 0xb68 <_ZN14HardwareSerial5flushEv+0xc>
 b9a:	df 91       	pop	r29
 b9c:	cf 91       	pop	r28
 b9e:	08 95       	ret

00000ba0 <yield>:
 ba0:	08 95       	ret

00000ba2 <__divmodhi4>:
 ba2:	97 fb       	bst	r25, 7
 ba4:	07 2e       	mov	r0, r23
 ba6:	16 f4       	brtc	.+4      	; 0xbac <__divmodhi4+0xa>
 ba8:	00 94       	com	r0
 baa:	07 d0       	rcall	.+14     	; 0xbba <__divmodhi4_neg1>
 bac:	77 fd       	sbrc	r23, 7
 bae:	09 d0       	rcall	.+18     	; 0xbc2 <__divmodhi4_neg2>
 bb0:	0e 94 e5 05 	call	0xbca	; 0xbca <__udivmodhi4>
 bb4:	07 fc       	sbrc	r0, 7
 bb6:	05 d0       	rcall	.+10     	; 0xbc2 <__divmodhi4_neg2>
 bb8:	3e f4       	brtc	.+14     	; 0xbc8 <__divmodhi4_exit>

00000bba <__divmodhi4_neg1>:
 bba:	90 95       	com	r25
 bbc:	81 95       	neg	r24
 bbe:	9f 4f       	sbci	r25, 0xFF	; 255
 bc0:	08 95       	ret

00000bc2 <__divmodhi4_neg2>:
 bc2:	70 95       	com	r23
 bc4:	61 95       	neg	r22
 bc6:	7f 4f       	sbci	r23, 0xFF	; 255

00000bc8 <__divmodhi4_exit>:
 bc8:	08 95       	ret

00000bca <__udivmodhi4>:
 bca:	aa 1b       	sub	r26, r26
 bcc:	bb 1b       	sub	r27, r27
 bce:	51 e1       	ldi	r21, 0x11	; 17
 bd0:	07 c0       	rjmp	.+14     	; 0xbe0 <__udivmodhi4_ep>

00000bd2 <__udivmodhi4_loop>:
 bd2:	aa 1f       	adc	r26, r26
 bd4:	bb 1f       	adc	r27, r27
 bd6:	a6 17       	cp	r26, r22
 bd8:	b7 07       	cpc	r27, r23
 bda:	10 f0       	brcs	.+4      	; 0xbe0 <__udivmodhi4_ep>
 bdc:	a6 1b       	sub	r26, r22
 bde:	b7 0b       	sbc	r27, r23

00000be0 <__udivmodhi4_ep>:
 be0:	88 1f       	adc	r24, r24
 be2:	99 1f       	adc	r25, r25
 be4:	5a 95       	dec	r21
 be6:	a9 f7       	brne	.-22     	; 0xbd2 <__udivmodhi4_loop>
 be8:	80 95       	com	r24
 bea:	90 95       	com	r25
 bec:	bc 01       	movw	r22, r24
 bee:	cd 01       	movw	r24, r26
 bf0:	08 95       	ret

00000bf2 <__tablejump2__>:
 bf2:	ee 0f       	add	r30, r30
 bf4:	ff 1f       	adc	r31, r31
 bf6:	05 90       	lpm	r0, Z+
 bf8:	f4 91       	lpm	r31, Z
 bfa:	e0 2d       	mov	r30, r0
 bfc:	09 94       	ijmp

00000bfe <__do_global_dtors>:
 bfe:	10 e0       	ldi	r17, 0x00	; 0
 c00:	c3 e6       	ldi	r28, 0x63	; 99
 c02:	d0 e0       	ldi	r29, 0x00	; 0
 c04:	04 c0       	rjmp	.+8      	; 0xc0e <__do_global_dtors+0x10>
 c06:	fe 01       	movw	r30, r28
 c08:	0e 94 f9 05 	call	0xbf2	; 0xbf2 <__tablejump2__>
 c0c:	21 96       	adiw	r28, 0x01	; 1
 c0e:	c4 36       	cpi	r28, 0x64	; 100
 c10:	d1 07       	cpc	r29, r17
 c12:	c9 f7       	brne	.-14     	; 0xc06 <__do_global_dtors+0x8>
 c14:	f8 94       	cli

00000c16 <__stop_program>:
 c16:	ff cf       	rjmp	.-2      	; 0xc16 <__stop_program>
